; Function Attrs: mustprogress nofree norecurse nosync nounwind willreturn memory(readwrite, inaccessiblemem: none) uwtable
define dso_local void @_ZN4node5http211Http2Stream32IncrementAvailableOutboundLengthEm(ptr nocapture noundef nonnull align 8 dereferenceable(368) %this, i64 noundef %amount) local_unnamed_addr #18 align 2 {
entry:
  %available_outbound_length_ = getelementptr inbounds i8, ptr %this, i64 336
  %0 = load i64, ptr %available_outbound_length_, align 8
  %add = add i64 %0, %amount
  store i64 %add, ptr %available_outbound_length_, align 8
  %session_ = getelementptr inbounds i8, ptr %this, i64 184
  %1 = load ptr, ptr %session_, align 8, !nonnull !13, !noundef !13
  %self.i.i.i = getelementptr inbounds i8, ptr %1, i64 16
  %2 = load ptr, ptr %self.i.i.i, align 8
  %current_session_memory_.i = getelementptr inbounds i8, ptr %2, i64 232
  %3 = load i64, ptr %current_session_memory_.i, align 8
  %add.i = add i64 %3, %amount
  store i64 %add.i, ptr %current_session_memory_.i, align 8
  ret void
}